target datalayout = "e-m:e-p270:32:32-p271:32:32-p272:64:64-i64:64-i128:128-f80:128-n8:16:32:64-S128"
target triple = "x86_64-pc-linux-gnu"

%struct.UTrie2 = type { ptr, ptr, ptr, i32, i32, i16, i16, i32, i32, i32, i32, ptr, i32, i8, i8, i16, ptr }

; Function Attrs: inlinehint mustprogress nounwind uwtable
define internal noundef signext i8 @_ZL9U_FAILURE10UErrorCode(i32 noundef %0) #4 {
  %2 = alloca i32, align 4
  store i32 %0, ptr %2, align 4, !tbaa !36
  %3 = load i32, ptr %2, align 4, !tbaa !36
  %4 = icmp sgt i32 %3, 0
  %5 = zext i1 %4 to i8
  ret i8 %5
}

; Function Attrs: mustprogress uwtable
define i32 @utrie2_serialize_77(ptr noundef %0, ptr noundef %1, i32 noundef %2, ptr noundef %3) #0 {
  %5 = alloca i32, align 4
  %6 = alloca ptr, align 8
  %7 = alloca ptr, align 8
  %8 = alloca i32, align 4
  %9 = alloca ptr, align 8
  store ptr %0, ptr %6, align 8, !tbaa !3
  store ptr %1, ptr %7, align 8, !tbaa !34
  store i32 %2, ptr %8, align 4, !tbaa !8
  store ptr %3, ptr %9, align 8, !tbaa !34
  %10 = load ptr, ptr %9, align 8, !tbaa !34
  %11 = load i32, ptr %10, align 4, !tbaa !36
  %12 = call noundef signext i8 @_ZL9U_FAILURE10UErrorCode(i32 noundef %11)
  %13 = icmp ne i8 %12, 0
  br i1 %13, label %14, label %15

14:                                               ; preds = %4
  store i32 0, ptr %5, align 4
  br label %67

15:                                               ; preds = %4
  %16 = load ptr, ptr %6, align 8, !tbaa !3
  %17 = icmp eq ptr %16, null
  br i1 %17, label %42, label %18

18:                                               ; preds = %15
  %19 = load ptr, ptr %6, align 8, !tbaa !3
  %20 = getelementptr inbounds nuw %struct.UTrie2, ptr %19, i32 0, i32 11
  %21 = load ptr, ptr %20, align 8, !tbaa !51
  %22 = icmp eq ptr %21, null
  br i1 %22, label %42, label %23

23:                                               ; preds = %18
  %24 = load ptr, ptr %6, align 8, !tbaa !3
  %25 = getelementptr inbounds nuw %struct.UTrie2, ptr %24, i32 0, i32 16
  %26 = load ptr, ptr %25, align 8, !tbaa !23
  %27 = icmp ne ptr %26, null
  br i1 %27, label %42, label %28

28:                                               ; preds = %23
  %29 = load i32, ptr %8, align 4, !tbaa !8
  %30 = icmp slt i32 %29, 0
  br i1 %30, label %42, label %31

31:                                               ; preds = %28
  %32 = load i32, ptr %8, align 4, !tbaa !8
  %33 = icmp sgt i32 %32, 0
  br i1 %33, label %34, label %44

34:                                               ; preds = %31
  %35 = load ptr, ptr %7, align 8, !tbaa !34
  %36 = icmp eq ptr %35, null
  br i1 %36, label %42, label %37

37:                                               ; preds = %34
  %38 = load ptr, ptr %7, align 8, !tbaa !34
  %39 = ptrtoint ptr %38 to i64
  %40 = and i64 %39, 3
  %41 = icmp ne i64 %40, 0
  br i1 %41, label %42, label %44

42:                                               ; preds = %37, %34, %28, %23, %18, %15
  %43 = load ptr, ptr %9, align 8, !tbaa !34
  store i32 1, ptr %43, align 4, !tbaa !36
  store i32 0, ptr %5, align 4
  br label %67

44:                                               ; preds = %37, %31
  %45 = load i32, ptr %8, align 4, !tbaa !8
  %46 = load ptr, ptr %6, align 8, !tbaa !3
  %47 = getelementptr inbounds nuw %struct.UTrie2, ptr %46, i32 0, i32 12
  %48 = load i32, ptr %47, align 8, !tbaa !52
  %49 = icmp sge i32 %45, %48
  br i1 %49, label %50, label %61

50:                                               ; preds = %44
  br label %51

51:                                               ; preds = %50
  %52 = load ptr, ptr %7, align 8, !tbaa !34
  %53 = load ptr, ptr %6, align 8, !tbaa !3
  %54 = getelementptr inbounds nuw %struct.UTrie2, ptr %53, i32 0, i32 11
  %55 = load ptr, ptr %54, align 8, !tbaa !51
  %56 = load ptr, ptr %6, align 8, !tbaa !3
  %57 = getelementptr inbounds nuw %struct.UTrie2, ptr %56, i32 0, i32 12
  %58 = load i32, ptr %57, align 8, !tbaa !52
  %59 = sext i32 %58 to i64
  call void @llvm.memcpy.p0.p0.i64(ptr align 1 %52, ptr align 1 %55, i64 %59, i1 false)
  br label %60

60:                                               ; preds = %51
  br label %63

61:                                               ; preds = %44
  %62 = load ptr, ptr %9, align 8, !tbaa !34
  store i32 15, ptr %62, align 4, !tbaa !36
  br label %63

63:                                               ; preds = %61, %60
  %64 = load ptr, ptr %6, align 8, !tbaa !3
  %65 = getelementptr inbounds nuw %struct.UTrie2, ptr %64, i32 0, i32 12
  %66 = load i32, ptr %65, align 8, !tbaa !52
  store i32 %66, ptr %5, align 4
  br label %67

67:                                               ; preds = %63, %42, %14
  %68 = load i32, ptr %5, align 4
  ret i32 %68
}