; Function Attrs: mustprogress nofree norecurse nosync nounwind willreturn memory(readwrite, inaccessiblemem: none) uwtable
define i32 @utrie2_serialize_77(ptr noundef readonly %0, ptr noundef %1, i32 noundef %2, ptr noundef captures(none) %3) local_unnamed_addr #8 {
  %5 = load i32, ptr %3, align 4, !tbaa !26
  %6 = icmp slt i32 %5, 1
  br i1 %6, label %7, label %30

7:                                                ; preds = %4
  %8 = icmp eq ptr %0, null
  br i1 %8, label %23, label %9

9:                                                ; preds = %7
  %10 = getelementptr inbounds nuw i8, ptr %0, i64 56
  %11 = load ptr, ptr %10, align 8, !tbaa !36
  %12 = icmp eq ptr %11, null
  br i1 %12, label %23, label %13

13:                                               ; preds = %9
  %14 = getelementptr inbounds nuw i8, ptr %0, i64 72
  %15 = load ptr, ptr %14, align 8, !tbaa !21
  %16 = icmp ne ptr %15, null
  %17 = icmp slt i32 %2, 0
  %or.cond = or i1 %17, %16
  br i1 %or.cond, label %23, label %18

18:                                               ; preds = %13
  %.not = icmp eq i32 %2, 0
  br i1 %.not, label %24, label %19

19:                                               ; preds = %18
  %20 = icmp ne ptr %1, null
  %21 = ptrtoint ptr %1 to i64
  %22 = and i64 %21, 3
  %.not21 = icmp eq i64 %22, 0
  %or.cond24 = and i1 %20, %.not21
  br i1 %or.cond24, label %24, label %23

23:                                               ; preds = %19, %13, %9, %7
  store i32 1, ptr %3, align 4, !tbaa !26
  br label %30

24:                                               ; preds = %19, %18
  %25 = getelementptr inbounds nuw i8, ptr %0, i64 64
  %26 = load i32, ptr %25, align 8, !tbaa !37
  %.not22 = icmp slt i32 %2, %26
  br i1 %.not22, label %29, label %27

27:                                               ; preds = %24
  %28 = sext i32 %26 to i64
  tail call void @llvm.memcpy.p0.p0.i64(ptr align 1 %1, ptr nonnull align 1 %11, i64 %28, i1 false)
  %.pre = load i32, ptr %25, align 8, !tbaa !37
  br label %30

29:                                               ; preds = %24
  store i32 15, ptr %3, align 4, !tbaa !26
  br label %30

30:                                               ; preds = %27, %29, %4, %23
  %.0 = phi i32 [ 0, %23 ], [ 0, %4 ], [ %26, %29 ], [ %.pre, %27 ]
  ret i32 %.0
}